target datalayout = "e-m:e-p270:32:32-p271:32:32-p272:64:64-i64:64-i128:128-f80:128-n8:16:32:64-S128"
target triple = "x86_64-unknown-linux-gnu"

%"class.hermes::vm::CallResult" = type { %"class.hermes::vm::PseudoHandle" }
%"class.hermes::vm::PseudoHandle" = type { ptr }
%"class.hermes::vm::Handle" = type { %"class.hermes::vm::HandleBase" }
%"class.hermes::vm::HandleBase" = type { ptr }
%"class.hermes::vm::Handle.201" = type { %"class.hermes::vm::HandleBase" }
%"class.llvh::StringRef" = type { ptr, i64 }
%"class.hermes::vm::TwineChar16" = type { %"union.hermes::vm::TwineChar16::Node", i32, %"union.hermes::vm::TwineChar16::Node", i32, i64, i64 }
%"union.hermes::vm::TwineChar16::Node" = type { ptr }

@.str.7 = private unnamed_addr constant [47 x i8] c"This function cannot be used as a constructor.\00", align 1

; Function Attrs: mustprogress nounwind uwtable
define linkonce_odr hidden void @_ZN6hermes2vm12PseudoHandleINS0_8JSObjectEEC2EPS2_(ptr noundef nonnull align 8 dereferenceable(8) %this, ptr noundef %value) unnamed_addr #0 comdat align 2 {
entry:
  %this.addr = alloca ptr, align 8
  %value.addr = alloca ptr, align 8
  store ptr %this, ptr %this.addr, align 8
  store ptr %value, ptr %value.addr, align 8
  %this1 = load ptr, ptr %this.addr, align 8
  %value_ = getelementptr inbounds %"class.hermes::vm::PseudoHandle", ptr %this1, i32 0, i32 0
  %0 = load ptr, ptr %value.addr, align 8
  store ptr %0, ptr %value_, align 8
  ret void
}

; Function Attrs: mustprogress nounwind uwtable
define linkonce_odr hidden noundef ptr @_ZNK4llvh9StringRef5beginEv(ptr noundef nonnull align 8 dereferenceable(16) %this) #0 comdat align 2 {
entry:
  %this.addr = alloca ptr, align 8
  store ptr %this, ptr %this.addr, align 8
  %this1 = load ptr, ptr %this.addr, align 8
  %Data = getelementptr inbounds %"class.llvh::StringRef", ptr %this1, i32 0, i32 0
  %0 = load ptr, ptr %Data, align 8
  ret ptr %0
}

; Function Attrs: mustprogress nounwind uwtable
define linkonce_odr hidden ptr @_ZN6hermes2vm12PseudoHandleINS0_8JSObjectEE6createEPS2_(ptr noundef %value) #0 comdat align 2 {
entry:
  %retval = alloca %"class.hermes::vm::PseudoHandle", align 8
  %value.addr = alloca ptr, align 8
  store ptr %value, ptr %value.addr, align 8
  %0 = load ptr, ptr %value.addr, align 8
  call void @_ZN6hermes2vm12PseudoHandleINS0_8JSObjectEEC2EPS2_(ptr noundef nonnull align 8 dereferenceable(8) %retval, ptr noundef %0)
  %coerce.dive = getelementptr inbounds %"class.hermes::vm::PseudoHandle", ptr %retval, i32 0, i32 0
  %1 = load ptr, ptr %coerce.dive, align 8
  ret ptr %1
}

; Function Attrs: mustprogress nounwind uwtable
define linkonce_odr hidden void @_ZN6hermes2vm11TwineChar16C2EN4llvh9StringRefE(ptr noundef nonnull align 8 dereferenceable(48) %this, ptr %str.coerce0, i64 %str.coerce1) unnamed_addr #0 comdat align 2 {
entry:
  %this.addr.i6 = alloca ptr, align 8
  %this.addr.i = alloca ptr, align 8
  %str = alloca %"class.llvh::StringRef", align 8
  %this.addr = alloca ptr, align 8
  %0 = getelementptr inbounds { ptr, i64 }, ptr %str, i32 0, i32 0
  store ptr %str.coerce0, ptr %0, align 8
  %1 = getelementptr inbounds { ptr, i64 }, ptr %str, i32 0, i32 1
  store i64 %str.coerce1, ptr %1, align 8
  store ptr %this, ptr %this.addr, align 8
  %this1 = load ptr, ptr %this.addr, align 8
  %rightKind_ = getelementptr inbounds %"class.hermes::vm::TwineChar16", ptr %this1, i32 0, i32 3
  store i32 1, ptr %rightKind_, align 8
  %leftSize_ = getelementptr inbounds %"class.hermes::vm::TwineChar16", ptr %this1, i32 0, i32 4
  store ptr %str, ptr %this.addr.i6, align 8
  %this1.i7 = load ptr, ptr %this.addr.i6, align 8
  %Length.i8 = getelementptr inbounds %"class.llvh::StringRef", ptr %this1.i7, i32 0, i32 1
  %2 = load i64, ptr %Length.i8, align 8
  store i64 %2, ptr %leftSize_, align 8
  %rightSize_ = getelementptr inbounds %"class.hermes::vm::TwineChar16", ptr %this1, i32 0, i32 5
  store i64 0, ptr %rightSize_, align 8
  store ptr %str, ptr %this.addr.i, align 8
  %this1.i = load ptr, ptr %this.addr.i, align 8
  %Length.i = getelementptr inbounds %"class.llvh::StringRef", ptr %this1.i, i32 0, i32 1
  %3 = load i64, ptr %Length.i, align 8
  %cmp = icmp eq i64 %3, 0
  br i1 %cmp, label %if.then, label %if.else

if.then:                                          ; preds = %entry
  %leftKind_ = getelementptr inbounds %"class.hermes::vm::TwineChar16", ptr %this1, i32 0, i32 1
  store i32 1, ptr %leftKind_, align 8
  br label %if.end

if.else:                                          ; preds = %entry
  %call3 = call noundef ptr @_ZNK4llvh9StringRef5beginEv(ptr noundef nonnull align 8 dereferenceable(16) %str)
  %leftChild_4 = getelementptr inbounds %"class.hermes::vm::TwineChar16", ptr %this1, i32 0, i32 0
  store ptr %call3, ptr %leftChild_4, align 8
  %leftKind_5 = getelementptr inbounds %"class.hermes::vm::TwineChar16", ptr %this1, i32 0, i32 1
  store i32 3, ptr %leftKind_5, align 8
  br label %if.end

if.end:                                           ; preds = %if.else, %if.then
  ret void
}

; Function Attrs: mustprogress nounwind uwtable
define linkonce_odr hidden void @_ZN6hermes2vm10CallResultINS0_12PseudoHandleINS0_8JSObjectEEELNS0_6detail20CallResultSpecializeE6EEC2ENS0_15ExecutionStatusE(ptr noundef nonnull align 8 dereferenceable(8) %this, i32 noundef %status) unnamed_addr #0 comdat align 2 {
entry:
  %this.addr = alloca ptr, align 8
  %status.addr = alloca i32, align 4
  store ptr %this, ptr %this.addr, align 8
  store i32 %status, ptr %status.addr, align 4
  %this1 = load ptr, ptr %this.addr, align 8
  %valueOrStatus_ = getelementptr inbounds %"class.hermes::vm::CallResult", ptr %this1, i32 0, i32 0
  %0 = inttoptr i64 -1 to ptr
  %call = call ptr @_ZN6hermes2vm12PseudoHandleINS0_8JSObjectEE6createEPS2_(ptr noundef %0)
  %coerce.dive = getelementptr inbounds %"class.hermes::vm::PseudoHandle", ptr %valueOrStatus_, i32 0, i32 0
  store ptr %call, ptr %coerce.dive, align 8
  ret void
}

; Function Attrs: mustprogress nounwind uwtable
define linkonce_odr hidden void @_ZN6hermes2vm11TwineChar16C2EPKc(ptr noundef nonnull align 8 dereferenceable(48) %this, ptr noundef %str) unnamed_addr #0 comdat align 2 {
entry:
  %this.addr.i = alloca ptr, align 8
  %Str.addr.i = alloca ptr, align 8
  %this.addr = alloca ptr, align 8
  %str.addr = alloca ptr, align 8
  %agg.tmp = alloca %"class.llvh::StringRef", align 8
  store ptr %this, ptr %this.addr, align 8
  store ptr %str, ptr %str.addr, align 8
  %this1 = load ptr, ptr %this.addr, align 8
  %0 = load ptr, ptr %str.addr, align 8
  store ptr %agg.tmp, ptr %this.addr.i, align 8
  store ptr %0, ptr %Str.addr.i, align 8
  %this1.i = load ptr, ptr %this.addr.i, align 8
  %1 = load ptr, ptr %Str.addr.i, align 8
  store ptr %1, ptr %this1.i, align 8
  %Length.i = getelementptr inbounds %"class.llvh::StringRef", ptr %this1.i, i32 0, i32 1
  %2 = load ptr, ptr %Str.addr.i, align 8
  %tobool.i = icmp ne ptr %2, null
  br i1 %tobool.i, label %cond.true.i, label %cond.false.i

cond.true.i:                                      ; preds = %entry
  %3 = load ptr, ptr %Str.addr.i, align 8
  %call.i = call i64 @strlen(ptr noundef %3) #9
  br label %_ZN4llvh9StringRefC2EPKc.exit

cond.false.i:                                     ; preds = %entry
  br label %_ZN4llvh9StringRefC2EPKc.exit

_ZN4llvh9StringRefC2EPKc.exit:                    ; preds = %cond.false.i, %cond.true.i
  %cond.i = phi i64 [ %call.i, %cond.true.i ], [ 0, %cond.false.i ]
  store i64 %cond.i, ptr %Length.i, align 8
  %4 = getelementptr inbounds { ptr, i64 }, ptr %agg.tmp, i32 0, i32 0
  %5 = load ptr, ptr %4, align 8
  %6 = getelementptr inbounds { ptr, i64 }, ptr %agg.tmp, i32 0, i32 1
  %7 = load i64, ptr %6, align 8
  call void @_ZN6hermes2vm11TwineChar16C2EN4llvh9StringRefE(ptr noundef nonnull align 8 dereferenceable(48) %this1, ptr %5, i64 %7)
  ret void
}

; Function Attrs: mustprogress nounwind uwtable
define hidden ptr @_ZN6hermes2vm14NativeFunction14_newObjectImplENS0_6HandleINS0_8CallableEEERNS0_7RuntimeENS2_INS0_8JSObjectEEE(ptr %.coerce, ptr noundef nonnull align 8 dereferenceable(9832) %runtime, ptr %.coerce2) #0 align 2 {
entry:
  %retval = alloca %"class.hermes::vm::CallResult", align 8
  %0 = alloca %"class.hermes::vm::Handle.201", align 8
  %1 = alloca %"class.hermes::vm::Handle", align 8
  %runtime.addr = alloca ptr, align 8
  %ref.tmp = alloca %"class.hermes::vm::TwineChar16", align 8
  %coerce.dive = getelementptr inbounds %"class.hermes::vm::Handle.201", ptr %0, i32 0, i32 0
  %coerce.dive1 = getelementptr inbounds %"class.hermes::vm::HandleBase", ptr %coerce.dive, i32 0, i32 0
  store ptr %.coerce, ptr %coerce.dive1, align 8
  %coerce.dive3 = getelementptr inbounds %"class.hermes::vm::Handle", ptr %1, i32 0, i32 0
  %coerce.dive4 = getelementptr inbounds %"class.hermes::vm::HandleBase", ptr %coerce.dive3, i32 0, i32 0
  store ptr %.coerce2, ptr %coerce.dive4, align 8
  store ptr %runtime, ptr %runtime.addr, align 8
  %2 = load ptr, ptr %runtime.addr, align 8
  call void @_ZN6hermes2vm11TwineChar16C2EPKc(ptr noundef nonnull align 8 dereferenceable(48) %ref.tmp, ptr noundef @.str.7)
  %call = call noundef i32 @_ZN6hermes2vm7Runtime14raiseTypeErrorERKNS0_11TwineChar16E(ptr noundef nonnull align 8 dereferenceable(9832) %2, ptr noundef nonnull align 8 dereferenceable(48) %ref.tmp)
  call void @_ZN6hermes2vm10CallResultINS0_12PseudoHandleINS0_8JSObjectEEELNS0_6detail20CallResultSpecializeE6EEC2ENS0_15ExecutionStatusE(ptr noundef nonnull align 8 dereferenceable(8) %retval, i32 noundef %call)
  %coerce.dive5 = getelementptr inbounds %"class.hermes::vm::CallResult", ptr %retval, i32 0, i32 0
  %coerce.dive6 = getelementptr inbounds %"class.hermes::vm::PseudoHandle", ptr %coerce.dive5, i32 0, i32 0
  %3 = load ptr, ptr %coerce.dive6, align 8
  ret ptr %3
}