; Function Attrs: mustprogress nounwind uwtable
define hidden noundef nonnull ptr @_ZN6hermes2vm14NativeFunction14_newObjectImplENS0_6HandleINS0_8CallableEEERNS0_7RuntimeENS2_INS0_8JSObjectEEE(ptr readnone captures(none) %.coerce, ptr noundef nonnull align 8 dereferenceable(9832) %runtime, ptr readnone captures(none) %.coerce2) #0 align 2 {
entry:
  %ref.tmp = alloca %"class.hermes::vm::TwineChar16", align 8
  %rightKind_.i3.i = getelementptr inbounds nuw i8, ptr %ref.tmp, i64 24
  store i32 1, ptr %rightKind_.i3.i, align 8
  %leftSize_.i4.i = getelementptr inbounds nuw i8, ptr %ref.tmp, i64 32
  store i64 46, ptr %leftSize_.i4.i, align 8
  %rightSize_.i5.i = getelementptr inbounds nuw i8, ptr %ref.tmp, i64 40
  store i64 0, ptr %rightSize_.i5.i, align 8
  store ptr @.str.7, ptr %ref.tmp, align 8
  %0 = getelementptr inbounds nuw i8, ptr %ref.tmp, i64 8
  store i32 3, ptr %0, align 8
  %call = call noundef i32 @_ZN6hermes2vm7Runtime14raiseTypeErrorERKNS0_11TwineChar16E(ptr noundef nonnull align 8 dereferenceable(9832) %runtime, ptr noundef nonnull align 8 dereferenceable(48) %ref.tmp) #11
  ret ptr inttoptr (i64 -1 to ptr)
}